target datalayout = "e-m:e-p270:32:32-p271:32:32-p272:64:64-i64:64-i128:128-f80:128-n8:16:32:64-S128"
target triple = "x86_64-pc-linux-gnu"

%"class.gmx::AtomsBuilder" = type { ptr, ptr, i32, i32, i32, i32 }
%struct.t_atoms = type { i32, ptr, ptr, ptr, ptr, i32, ptr, ptr, i8, i8, i8, i8, i8 }
%struct.t_resinfo = type { ptr, i32, i8, i32, i8, ptr }

; Function Attrs: mustprogress uwtable
define noundef ptr @_ZN3gmx12AtomsBuilder12symtabStringEPPc(ptr noundef nonnull align 8 dereferenceable(32) %0, ptr noundef %1) #1 align 2 {
  %3 = alloca ptr, align 8
  %4 = alloca ptr, align 8
  %5 = alloca ptr, align 8
  store ptr %0, ptr %4, align 8, !tbaa !4
  store ptr %1, ptr %5, align 8, !tbaa !35
  %6 = load ptr, ptr %4, align 8
  %7 = getelementptr inbounds nuw %"class.gmx::AtomsBuilder", ptr %6, i32 0, i32 1
  %8 = load ptr, ptr %7, align 8, !tbaa !16
  %9 = icmp ne ptr %8, null
  br i1 %9, label %10, label %16

10:                                               ; preds = %2
  %11 = getelementptr inbounds nuw %"class.gmx::AtomsBuilder", ptr %6, i32 0, i32 1
  %12 = load ptr, ptr %11, align 8, !tbaa !16
  %13 = load ptr, ptr %5, align 8, !tbaa !35
  %14 = load ptr, ptr %13, align 8, !tbaa !36
  %15 = call noundef ptr @_Z10put_symtabP8t_symtabPKc(ptr noundef %12, ptr noundef %14)
  store ptr %15, ptr %3, align 8
  br label %18

16:                                               ; preds = %2
  %17 = load ptr, ptr %5, align 8, !tbaa !35
  store ptr %17, ptr %3, align 8
  br label %18

18:                                               ; preds = %16, %10
  %19 = load ptr, ptr %3, align 8
  ret ptr %19
}

; Function Attrs: mustprogress uwtable
define void @_ZN3gmx12AtomsBuilder13finishResidueERK9t_resinfo(ptr noundef nonnull align 8 dereferenceable(32) %0, ptr noundef nonnull align 8 dereferenceable(32) %1) #1 align 2 {
  %3 = alloca ptr, align 8
  %4 = alloca ptr, align 8
  %5 = alloca i32, align 4
  store ptr %0, ptr %3, align 8, !tbaa !4
  store ptr %1, ptr %4, align 8, !tbaa !51
  %6 = load ptr, ptr %3, align 8
  %7 = getelementptr inbounds nuw %"class.gmx::AtomsBuilder", ptr %6, i32 0, i32 5
  %8 = load i32, ptr %7, align 4, !tbaa !30
  %9 = icmp eq i32 %8, -1
  br i1 %9, label %10, label %15

10:                                               ; preds = %2
  %11 = load ptr, ptr %4, align 8, !tbaa !51
  %12 = getelementptr inbounds nuw %struct.t_resinfo, ptr %11, i32 0, i32 1
  %13 = load i32, ptr %12, align 8, !tbaa !32
  %14 = getelementptr inbounds nuw %"class.gmx::AtomsBuilder", ptr %6, i32 0, i32 5
  store i32 %13, ptr %14, align 4, !tbaa !30
  br label %15

15:                                               ; preds = %10, %2
  call void @llvm.lifetime.start.p0(i64 4, ptr %5) #13
  %16 = getelementptr inbounds nuw %"class.gmx::AtomsBuilder", ptr %6, i32 0, i32 4
  %17 = load i32, ptr %16, align 8, !tbaa !29
  store i32 %17, ptr %5, align 4, !tbaa !38
  %18 = load ptr, ptr %4, align 8, !tbaa !51
  %19 = getelementptr inbounds nuw %"class.gmx::AtomsBuilder", ptr %6, i32 0, i32 0
  %20 = load ptr, ptr %19, align 8, !tbaa !13
  %21 = getelementptr inbounds nuw %struct.t_atoms, ptr %20, i32 0, i32 6
  %22 = load ptr, ptr %21, align 8, !tbaa !31
  %23 = load i32, ptr %5, align 4, !tbaa !38
  %24 = sext i32 %23 to i64
  %25 = getelementptr inbounds %struct.t_resinfo, ptr %22, i64 %24
  call void @llvm.memcpy.p0.p0.i64(ptr align 8 %25, ptr align 8 %18, i64 32, i1 false), !tbaa.struct !71
  %26 = getelementptr inbounds nuw %"class.gmx::AtomsBuilder", ptr %6, i32 0, i32 5
  %27 = load i32, ptr %26, align 4, !tbaa !30
  %28 = getelementptr inbounds nuw %"class.gmx::AtomsBuilder", ptr %6, i32 0, i32 0
  %29 = load ptr, ptr %28, align 8, !tbaa !13
  %30 = getelementptr inbounds nuw %struct.t_atoms, ptr %29, i32 0, i32 6
  %31 = load ptr, ptr %30, align 8, !tbaa !31
  %32 = load i32, ptr %5, align 4, !tbaa !38
  %33 = sext i32 %32 to i64
  %34 = getelementptr inbounds %struct.t_resinfo, ptr %31, i64 %33
  %35 = getelementptr inbounds nuw %struct.t_resinfo, ptr %34, i32 0, i32 1
  store i32 %27, ptr %35, align 8, !tbaa !32
  %36 = load ptr, ptr %4, align 8, !tbaa !51
  %37 = getelementptr inbounds nuw %struct.t_resinfo, ptr %36, i32 0, i32 0
  %38 = load ptr, ptr %37, align 8, !tbaa !72
  %39 = call noundef ptr @_ZN3gmx12AtomsBuilder12symtabStringEPPc(ptr noundef nonnull align 8 dereferenceable(32) %6, ptr noundef %38)
  %40 = getelementptr inbounds nuw %"class.gmx::AtomsBuilder", ptr %6, i32 0, i32 0
  %41 = load ptr, ptr %40, align 8, !tbaa !13
  %42 = getelementptr inbounds nuw %struct.t_atoms, ptr %41, i32 0, i32 6
  %43 = load ptr, ptr %42, align 8, !tbaa !31
  %44 = load i32, ptr %5, align 4, !tbaa !38
  %45 = sext i32 %44 to i64
  %46 = getelementptr inbounds %struct.t_resinfo, ptr %43, i64 %45
  %47 = getelementptr inbounds nuw %struct.t_resinfo, ptr %46, i32 0, i32 0
  store ptr %39, ptr %47, align 8, !tbaa !72
  %48 = getelementptr inbounds nuw %"class.gmx::AtomsBuilder", ptr %6, i32 0, i32 5
  %49 = load i32, ptr %48, align 4, !tbaa !30
  %50 = add nsw i32 %49, 1
  store i32 %50, ptr %48, align 4, !tbaa !30
  %51 = load i32, ptr %5, align 4, !tbaa !38
  %52 = add nsw i32 %51, 1
  %53 = getelementptr inbounds nuw %"class.gmx::AtomsBuilder", ptr %6, i32 0, i32 4
  store i32 %52, ptr %53, align 8, !tbaa !29
  %54 = load i32, ptr %5, align 4, !tbaa !38
  %55 = getelementptr inbounds nuw %"class.gmx::AtomsBuilder", ptr %6, i32 0, i32 0
  %56 = load ptr, ptr %55, align 8, !tbaa !13
  %57 = getelementptr inbounds nuw %struct.t_atoms, ptr %56, i32 0, i32 5
  %58 = load i32, ptr %57, align 8, !tbaa !27
  %59 = icmp sge i32 %54, %58
  br i1 %59, label %60, label %66

60:                                               ; preds = %15
  %61 = getelementptr inbounds nuw %"class.gmx::AtomsBuilder", ptr %6, i32 0, i32 0
  %62 = load ptr, ptr %61, align 8, !tbaa !13
  %63 = getelementptr inbounds nuw %struct.t_atoms, ptr %62, i32 0, i32 5
  %64 = load i32, ptr %63, align 8, !tbaa !27
  %65 = add nsw i32 %64, 1
  store i32 %65, ptr %63, align 8, !tbaa !27
  br label %66

66:                                               ; preds = %60, %15
  call void @llvm.lifetime.end.p0(i64 4, ptr %5) #13
  ret void
}