; Function Attrs: mustprogress uwtable
define void @_ZN3gmx12AtomsBuilder13finishResidueERK9t_resinfo(ptr noundef nonnull align 8 captures(none) dereferenceable(32) %0, ptr noundef nonnull readonly align 8 captures(none) dereferenceable(32) %1) local_unnamed_addr #2 align 2 {
  %3 = getelementptr inbounds nuw i8, ptr %0, i64 28
  %4 = load i32, ptr %3, align 4, !tbaa !26
  %5 = icmp eq i32 %4, -1
  br i1 %5, label %6, label %9

6:                                                ; preds = %2
  %7 = getelementptr inbounds nuw i8, ptr %1, i64 8
  %8 = load i32, ptr %7, align 8, !tbaa !28
  store i32 %8, ptr %3, align 4, !tbaa !26
  br label %9

9:                                                ; preds = %6, %2
  %10 = getelementptr inbounds nuw i8, ptr %0, i64 24
  %11 = load i32, ptr %10, align 8, !tbaa !25
  %12 = load ptr, ptr %0, align 8, !tbaa !4
  %13 = getelementptr inbounds nuw i8, ptr %12, i64 48
  %14 = load ptr, ptr %13, align 8, !tbaa !27
  %15 = sext i32 %11 to i64
  %16 = getelementptr inbounds %struct.t_resinfo, ptr %14, i64 %15
  tail call void @llvm.memcpy.p0.p0.i64(ptr noundef nonnull align 8 dereferenceable(32) %16, ptr noundef nonnull align 8 dereferenceable(32) %1, i64 32, i1 false), !tbaa.struct !56
  %17 = load i32, ptr %3, align 4, !tbaa !26
  %18 = load ptr, ptr %0, align 8, !tbaa !4
  %19 = getelementptr inbounds nuw i8, ptr %18, i64 48
  %20 = load ptr, ptr %19, align 8, !tbaa !27
  %21 = getelementptr inbounds %struct.t_resinfo, ptr %20, i64 %15, i32 1
  store i32 %17, ptr %21, align 8, !tbaa !28
  %22 = load ptr, ptr %1, align 8, !tbaa !57
  %23 = getelementptr inbounds nuw i8, ptr %0, i64 8
  %24 = load ptr, ptr %23, align 8, !tbaa !12
  %.not.i = icmp eq ptr %24, null
  br i1 %.not.i, label %_ZN3gmx12AtomsBuilder12symtabStringEPPc.exit, label %25

25:                                               ; preds = %9
  %26 = load ptr, ptr %22, align 8, !tbaa !31
  %27 = tail call noundef ptr @_Z10put_symtabP8t_symtabPKc(ptr noundef nonnull %24, ptr noundef %26)
  %.pre = load ptr, ptr %0, align 8, !tbaa !4
  %.phi.trans.insert = getelementptr inbounds nuw i8, ptr %.pre, i64 48
  %.pre8 = load ptr, ptr %.phi.trans.insert, align 8, !tbaa !27
  %.pre9 = load i32, ptr %3, align 4, !tbaa !26
  br label %_ZN3gmx12AtomsBuilder12symtabStringEPPc.exit

_ZN3gmx12AtomsBuilder12symtabStringEPPc.exit:     ; preds = %9, %25
  %28 = phi i32 [ %.pre9, %25 ], [ %17, %9 ]
  %29 = phi ptr [ %.pre8, %25 ], [ %20, %9 ]
  %30 = phi ptr [ %.pre, %25 ], [ %18, %9 ]
  %.0.i = phi ptr [ %27, %25 ], [ %22, %9 ]
  %31 = getelementptr inbounds %struct.t_resinfo, ptr %29, i64 %15
  store ptr %.0.i, ptr %31, align 8, !tbaa !57
  %32 = add nsw i32 %28, 1
  store i32 %32, ptr %3, align 4, !tbaa !26
  %33 = add nsw i32 %11, 1
  store i32 %33, ptr %10, align 8, !tbaa !25
  %34 = getelementptr inbounds nuw i8, ptr %30, i64 40
  %35 = load i32, ptr %34, align 8, !tbaa !23
  %.not = icmp slt i32 %11, %35
  br i1 %.not, label %38, label %36

36:                                               ; preds = %_ZN3gmx12AtomsBuilder12symtabStringEPPc.exit
  %37 = add nsw i32 %35, 1
  store i32 %37, ptr %34, align 8, !tbaa !23
  br label %38

38:                                               ; preds = %36, %_ZN3gmx12AtomsBuilder12symtabStringEPPc.exit
  ret void
}